target datalayout = "e-m:e-p270:32:32-p271:32:32-p272:64:64-i64:64-i128:128-f80:128-n8:16:32:64-S128"
target triple = "x86_64-pc-linux-gnu"

%struct.Min_Man_t_ = type { i32, i32, ptr, ptr, ptr, [2 x ptr], [2 x ptr], ptr, ptr, i32, ptr }
%struct.Min_Cube_t_ = type { ptr, i32, [1 x i32] }

; Function Attrs: nounwind uwtable
define ptr @Min_ManAlloc(i32 noundef %0) #0 {
  %2 = alloca i32, align 4
  %3 = alloca ptr, align 8
  store i32 %0, ptr %2, align 4, !tbaa !3
  call void @llvm.lifetime.start.p0(i64 8, ptr %3) #7
  %4 = call noalias ptr @malloc(i64 noundef 96) #8
  store ptr %4, ptr %3, align 8, !tbaa !7
  %5 = load ptr, ptr %3, align 8, !tbaa !7
  call void @llvm.memset.p0.i64(ptr align 8 %5, i8 0, i64 96, i1 false)
  %6 = load i32, ptr %2, align 4, !tbaa !3
  %7 = load ptr, ptr %3, align 8, !tbaa !7
  %8 = getelementptr inbounds nuw %struct.Min_Man_t_, ptr %7, i32 0, i32 0
  store i32 %6, ptr %8, align 8, !tbaa !10
  %9 = load i32, ptr %2, align 4, !tbaa !3
  %10 = mul nsw i32 %9, 2
  %11 = call i32 @Abc_BitWordNum(i32 noundef %10)
  %12 = load ptr, ptr %3, align 8, !tbaa !7
  %13 = getelementptr inbounds nuw %struct.Min_Man_t_, ptr %12, i32 0, i32 1
  store i32 %11, ptr %13, align 4, !tbaa !15
  %14 = load ptr, ptr %3, align 8, !tbaa !7
  %15 = getelementptr inbounds nuw %struct.Min_Man_t_, ptr %14, i32 0, i32 1
  %16 = load i32, ptr %15, align 4, !tbaa !15
  %17 = sub nsw i32 %16, 1
  %18 = sext i32 %17 to i64
  %19 = mul i64 4, %18
  %20 = add i64 16, %19
  %21 = trunc i64 %20 to i32
  %22 = call ptr @Extra_MmFixedStart(i32 noundef %21)
  %23 = load ptr, ptr %3, align 8, !tbaa !7
  %24 = getelementptr inbounds nuw %struct.Min_Man_t_, ptr %23, i32 0, i32 2
  store ptr %22, ptr %24, align 8, !tbaa !16
  %25 = load ptr, ptr %3, align 8, !tbaa !7
  %26 = getelementptr inbounds nuw %struct.Min_Man_t_, ptr %25, i32 0, i32 0
  %27 = load i32, ptr %26, align 8, !tbaa !10
  %28 = add nsw i32 %27, 1
  %29 = sext i32 %28 to i64
  %30 = mul i64 8, %29
  %31 = call noalias ptr @malloc(i64 noundef %30) #8
  %32 = load ptr, ptr %3, align 8, !tbaa !7
  %33 = getelementptr inbounds nuw %struct.Min_Man_t_, ptr %32, i32 0, i32 10
  store ptr %31, ptr %33, align 8, !tbaa !17
  %34 = load ptr, ptr %3, align 8, !tbaa !7
  %35 = load i32, ptr %2, align 4, !tbaa !3
  call void @Min_ManClean(ptr noundef %34, i32 noundef %35)
  %36 = load ptr, ptr %3, align 8, !tbaa !7
  %37 = call ptr @Min_CubeAlloc(ptr noundef %36)
  %38 = load ptr, ptr %3, align 8, !tbaa !7
  %39 = getelementptr inbounds nuw %struct.Min_Man_t_, ptr %38, i32 0, i32 3
  store ptr %37, ptr %39, align 8, !tbaa !18
  %40 = load ptr, ptr %3, align 8, !tbaa !7
  %41 = call ptr @Min_CubeAlloc(ptr noundef %40)
  %42 = load ptr, ptr %3, align 8, !tbaa !7
  %43 = getelementptr inbounds nuw %struct.Min_Man_t_, ptr %42, i32 0, i32 4
  store ptr %41, ptr %43, align 8, !tbaa !19
  %44 = load ptr, ptr %3, align 8, !tbaa !7
  %45 = call ptr @Min_CubeAlloc(ptr noundef %44)
  %46 = load ptr, ptr %3, align 8, !tbaa !7
  %47 = getelementptr inbounds nuw %struct.Min_Man_t_, ptr %46, i32 0, i32 7
  store ptr %45, ptr %47, align 8, !tbaa !20
  %48 = load ptr, ptr %3, align 8, !tbaa !7
  %49 = call ptr @Min_CubeAlloc(ptr noundef %48)
  %50 = load ptr, ptr %3, align 8, !tbaa !7
  %51 = getelementptr inbounds nuw %struct.Min_Man_t_, ptr %50, i32 0, i32 8
  store ptr %49, ptr %51, align 8, !tbaa !21
  %52 = load ptr, ptr %3, align 8, !tbaa !7
  %53 = getelementptr inbounds nuw %struct.Min_Man_t_, ptr %52, i32 0, i32 8
  %54 = load ptr, ptr %53, align 8, !tbaa !21
  %55 = getelementptr inbounds nuw %struct.Min_Cube_t_, ptr %54, i32 0, i32 2
  %56 = getelementptr inbounds [1 x i32], ptr %55, i64 0, i64 0
  store i32 0, ptr %56, align 4, !tbaa !3
  %57 = load ptr, ptr %3, align 8, !tbaa !7
  call void @Min_ManClean(ptr noundef %57, i32 noundef 1)
  %58 = load ptr, ptr %3, align 8, !tbaa !7
  %59 = call ptr @Min_CubeAllocVar(ptr noundef %58, i32 noundef 0, i32 noundef 0)
  %60 = load ptr, ptr %3, align 8, !tbaa !7
  %61 = getelementptr inbounds nuw %struct.Min_Man_t_, ptr %60, i32 0, i32 5
  %62 = getelementptr inbounds [2 x ptr], ptr %61, i64 0, i64 0
  store ptr %59, ptr %62, align 8, !tbaa !22
  %63 = load ptr, ptr %3, align 8, !tbaa !7
  %64 = call ptr @Min_CubeAllocVar(ptr noundef %63, i32 noundef 0, i32 noundef 1)
  %65 = load ptr, ptr %3, align 8, !tbaa !7
  %66 = getelementptr inbounds nuw %struct.Min_Man_t_, ptr %65, i32 0, i32 5
  %67 = getelementptr inbounds [2 x ptr], ptr %66, i64 0, i64 1
  store ptr %64, ptr %67, align 8, !tbaa !22
  %68 = load ptr, ptr %3, align 8, !tbaa !7
  %69 = call ptr @Min_CubeAllocVar(ptr noundef %68, i32 noundef 0, i32 noundef 0)
  %70 = load ptr, ptr %3, align 8, !tbaa !7
  %71 = getelementptr inbounds nuw %struct.Min_Man_t_, ptr %70, i32 0, i32 6
  %72 = getelementptr inbounds [2 x ptr], ptr %71, i64 0, i64 0
  store ptr %69, ptr %72, align 8, !tbaa !22
  %73 = load ptr, ptr %3, align 8, !tbaa !7
  %74 = call ptr @Min_CubeAllocVar(ptr noundef %73, i32 noundef 0, i32 noundef 1)
  %75 = load ptr, ptr %3, align 8, !tbaa !7
  %76 = getelementptr inbounds nuw %struct.Min_Man_t_, ptr %75, i32 0, i32 6
  %77 = getelementptr inbounds [2 x ptr], ptr %76, i64 0, i64 1
  store ptr %74, ptr %77, align 8, !tbaa !22
  %78 = load ptr, ptr %3, align 8, !tbaa !7
  %79 = load i32, ptr %2, align 4, !tbaa !3
  call void @Min_ManClean(ptr noundef %78, i32 noundef %79)
  %80 = load ptr, ptr %3, align 8, !tbaa !7
  call void @llvm.lifetime.end.p0(i64 8, ptr %3) #7
  ret ptr %80
}

; Function Attrs: nocallback nofree nosync nounwind willreturn memory(argmem: readwrite)
declare void @llvm.lifetime.start.p0(i64 immarg, ptr captures(none)) #1

; Function Attrs: nounwind allocsize(0)
declare noalias ptr @malloc(i64 noundef) #2

; Function Attrs: nocallback nofree nounwind willreturn memory(argmem: write)
declare void @llvm.memset.p0.i64(ptr writeonly captures(none), i8, i64, i1 immarg) #3

; Function Attrs: inlinehint nounwind uwtable
define internal i32 @Abc_BitWordNum(i32 noundef %0) #4 {
  %2 = alloca i32, align 4
  store i32 %0, ptr %2, align 4, !tbaa !3
  %3 = load i32, ptr %2, align 4, !tbaa !3
  %4 = ashr i32 %3, 5
  %5 = load i32, ptr %2, align 4, !tbaa !3
  %6 = and i32 %5, 31
  %7 = icmp sgt i32 %6, 0
  %8 = zext i1 %7 to i32
  %9 = add nsw i32 %4, %8
  ret i32 %9
}

declare ptr @Extra_MmFixedStart(i32 noundef) #5

; Function Attrs: nounwind uwtable
define void @Min_ManClean(ptr noundef %0, i32 noundef %1) #0 {
  %3 = alloca ptr, align 8
  %4 = alloca i32, align 4
  store ptr %0, ptr %3, align 8, !tbaa !7
  store i32 %1, ptr %4, align 4, !tbaa !3
  %5 = load i32, ptr %4, align 4, !tbaa !3
  %6 = load ptr, ptr %3, align 8, !tbaa !7
  %7 = getelementptr inbounds nuw %struct.Min_Man_t_, ptr %6, i32 0, i32 0
  store i32 %5, ptr %7, align 8, !tbaa !10
  %8 = load i32, ptr %4, align 4, !tbaa !3
  %9 = mul nsw i32 2, %8
  %10 = call i32 @Abc_BitWordNum(i32 noundef %9)
  %11 = load ptr, ptr %3, align 8, !tbaa !7
  %12 = getelementptr inbounds nuw %struct.Min_Man_t_, ptr %11, i32 0, i32 1
  store i32 %10, ptr %12, align 4, !tbaa !15
  %13 = load ptr, ptr %3, align 8, !tbaa !7
  %14 = getelementptr inbounds nuw %struct.Min_Man_t_, ptr %13, i32 0, i32 10
  %15 = load ptr, ptr %14, align 8, !tbaa !17
  %16 = load i32, ptr %4, align 4, !tbaa !3
  %17 = add nsw i32 %16, 1
  %18 = sext i32 %17 to i64
  %19 = mul i64 8, %18
  call void @llvm.memset.p0.i64(ptr align 8 %15, i8 0, i64 %19, i1 false)
  %20 = load ptr, ptr %3, align 8, !tbaa !7
  %21 = getelementptr inbounds nuw %struct.Min_Man_t_, ptr %20, i32 0, i32 9
  store i32 0, ptr %21, align 8, !tbaa !23
  ret void
}

; Function Attrs: inlinehint nounwind uwtable
define internal ptr @Min_CubeAlloc(ptr noundef %0) #4 {
  %2 = alloca ptr, align 8
  %3 = alloca ptr, align 8
  store ptr %0, ptr %2, align 8, !tbaa !7
  call void @llvm.lifetime.start.p0(i64 8, ptr %3) #7
  %4 = load ptr, ptr %2, align 8, !tbaa !7
  %5 = getelementptr inbounds nuw %struct.Min_Man_t_, ptr %4, i32 0, i32 2
  %6 = load ptr, ptr %5, align 8, !tbaa !16
  %7 = call ptr @Extra_MmFixedEntryFetch(ptr noundef %6)
  store ptr %7, ptr %3, align 8, !tbaa !22
  %8 = load ptr, ptr %3, align 8, !tbaa !22
  %9 = getelementptr inbounds nuw %struct.Min_Cube_t_, ptr %8, i32 0, i32 0
  store ptr null, ptr %9, align 8, !tbaa !24
  %10 = load ptr, ptr %2, align 8, !tbaa !7
  %11 = getelementptr inbounds nuw %struct.Min_Man_t_, ptr %10, i32 0, i32 0
  %12 = load i32, ptr %11, align 8, !tbaa !10
  %13 = load ptr, ptr %3, align 8, !tbaa !22
  %14 = getelementptr inbounds nuw %struct.Min_Cube_t_, ptr %13, i32 0, i32 1
  %15 = load i32, ptr %14, align 8
  %16 = and i32 %12, 1023
  %17 = and i32 %15, -1024
  %18 = or i32 %17, %16
  store i32 %18, ptr %14, align 8
  %19 = load ptr, ptr %2, align 8, !tbaa !7
  %20 = getelementptr inbounds nuw %struct.Min_Man_t_, ptr %19, i32 0, i32 1
  %21 = load i32, ptr %20, align 4, !tbaa !15
  %22 = load ptr, ptr %3, align 8, !tbaa !22
  %23 = getelementptr inbounds nuw %struct.Min_Cube_t_, ptr %22, i32 0, i32 1
  %24 = load i32, ptr %23, align 8
  %25 = and i32 %21, 4095
  %26 = shl i32 %25, 10
  %27 = and i32 %24, -4193281
  %28 = or i32 %27, %26
  store i32 %28, ptr %23, align 8
  %29 = load ptr, ptr %3, align 8, !tbaa !22
  %30 = getelementptr inbounds nuw %struct.Min_Cube_t_, ptr %29, i32 0, i32 1
  %31 = load i32, ptr %30, align 8
  %32 = and i32 %31, 4194303
  %33 = or i32 %32, 0
  store i32 %33, ptr %30, align 8
  %34 = load ptr, ptr %3, align 8, !tbaa !22
  %35 = getelementptr inbounds nuw %struct.Min_Cube_t_, ptr %34, i32 0, i32 2
  %36 = getelementptr inbounds [1 x i32], ptr %35, i64 0, i64 0
  %37 = load ptr, ptr %2, align 8, !tbaa !7
  %38 = getelementptr inbounds nuw %struct.Min_Man_t_, ptr %37, i32 0, i32 1
  %39 = load i32, ptr %38, align 4, !tbaa !15
  %40 = sext i32 %39 to i64
  %41 = mul i64 4, %40
  call void @llvm.memset.p0.i64(ptr align 4 %36, i8 -1, i64 %41, i1 false)
  %42 = load ptr, ptr %3, align 8, !tbaa !22
  call void @llvm.lifetime.end.p0(i64 8, ptr %3) #7
  ret ptr %42
}

; Function Attrs: inlinehint nounwind uwtable
define internal ptr @Min_CubeAllocVar(ptr noundef %0, i32 noundef %1, i32 noundef %2) #4 {
  %4 = alloca ptr, align 8
  %5 = alloca i32, align 4
  %6 = alloca i32, align 4
  %7 = alloca ptr, align 8
  store ptr %0, ptr %4, align 8, !tbaa !7
  store i32 %1, ptr %5, align 4, !tbaa !3
  store i32 %2, ptr %6, align 4, !tbaa !3
  call void @llvm.lifetime.start.p0(i64 8, ptr %7) #7
  %8 = load ptr, ptr %4, align 8, !tbaa !7
  %9 = call ptr @Min_CubeAlloc(ptr noundef %8)
  store ptr %9, ptr %7, align 8, !tbaa !22
  %10 = load ptr, ptr %7, align 8, !tbaa !22
  %11 = load i32, ptr %5, align 4, !tbaa !3
  %12 = mul nsw i32 %11, 2
  %13 = load i32, ptr %6, align 4, !tbaa !3
  %14 = add nsw i32 %12, %13
  call void @Min_CubeXorBit(ptr noundef %10, i32 noundef %14)
  %15 = load ptr, ptr %7, align 8, !tbaa !22
  %16 = getelementptr inbounds nuw %struct.Min_Cube_t_, ptr %15, i32 0, i32 1
  %17 = load i32, ptr %16, align 8
  %18 = and i32 %17, 4194303
  %19 = or i32 %18, 4194304
  store i32 %19, ptr %16, align 8
  %20 = load ptr, ptr %7, align 8, !tbaa !22
  call void @llvm.lifetime.end.p0(i64 8, ptr %7) #7
  ret ptr %20
}

; Function Attrs: nocallback nofree nosync nounwind willreturn memory(argmem: readwrite)
declare void @llvm.lifetime.end.p0(i64 immarg, ptr captures(none)) #1

; Function Attrs: nounwind uwtable
define void @Min_ManFree(ptr noundef %0) #0 {
  %2 = alloca ptr, align 8
  store ptr %0, ptr %2, align 8, !tbaa !7
  %3 = load ptr, ptr %2, align 8, !tbaa !7
  %4 = getelementptr inbounds nuw %struct.Min_Man_t_, ptr %3, i32 0, i32 2
  %5 = load ptr, ptr %4, align 8, !tbaa !16
  call void @Extra_MmFixedStop(ptr noundef %5)
  %6 = load ptr, ptr %2, align 8, !tbaa !7
  %7 = getelementptr inbounds nuw %struct.Min_Man_t_, ptr %6, i32 0, i32 10
  %8 = load ptr, ptr %7, align 8, !tbaa !17
  %9 = icmp ne ptr %8, null
  br i1 %9, label %10, label %16

10:                                               ; preds = %1
  %11 = load ptr, ptr %2, align 8, !tbaa !7
  %12 = getelementptr inbounds nuw %struct.Min_Man_t_, ptr %11, i32 0, i32 10
  %13 = load ptr, ptr %12, align 8, !tbaa !17
  call void @free(ptr noundef %13) #7
  %14 = load ptr, ptr %2, align 8, !tbaa !7
  %15 = getelementptr inbounds nuw %struct.Min_Man_t_, ptr %14, i32 0, i32 10
  store ptr null, ptr %15, align 8, !tbaa !17
  br label %17

16:                                               ; preds = %1
  br label %17

17:                                               ; preds = %16, %10
  %18 = load ptr, ptr %2, align 8, !tbaa !7
  %19 = icmp ne ptr %18, null
  br i1 %19, label %20, label %22

20:                                               ; preds = %17
  %21 = load ptr, ptr %2, align 8, !tbaa !7
  call void @free(ptr noundef %21) #7
  store ptr null, ptr %2, align 8, !tbaa !7
  br label %23

22:                                               ; preds = %17
  br label %23

23:                                               ; preds = %22, %20
  ret void
}

declare void @Extra_MmFixedStop(ptr noundef) #5

; Function Attrs: nounwind
declare void @free(ptr noundef) #6

declare ptr @Extra_MmFixedEntryFetch(ptr noundef) #5

; Function Attrs: inlinehint nounwind uwtable
define internal void @Min_CubeXorBit(ptr noundef %0, i32 noundef %1) #4 {
  %3 = alloca ptr, align 8
  %4 = alloca i32, align 4
  store ptr %0, ptr %3, align 8, !tbaa !22
  store i32 %1, ptr %4, align 4, !tbaa !3
  %5 = load i32, ptr %4, align 4, !tbaa !3
  %6 = and i32 %5, 31
  %7 = shl i32 1, %6
  %8 = load ptr, ptr %3, align 8, !tbaa !22
  %9 = getelementptr inbounds nuw %struct.Min_Cube_t_, ptr %8, i32 0, i32 2
  %10 = load i32, ptr %4, align 4, !tbaa !3
  %11 = ashr i32 %10, 5
  %12 = sext i32 %11 to i64
  %13 = getelementptr inbounds [1 x i32], ptr %9, i64 0, i64 %12
  %14 = load i32, ptr %13, align 4, !tbaa !3
  %15 = xor i32 %14, %7
  store i32 %15, ptr %13, align 4, !tbaa !3
  ret void
}


!llvm.module.flags = !{!0, !1, !2}

!0 = !{i32 1, !"wchar_size", i32 4}
!1 = !{i32 8, !"PIC Level", i32 2}
!2 = !{i32 7, !"uwtable", i32 2}
!3 = !{!4, !4, i64 0}
!4 = !{!"int", !5, i64 0}
!5 = !{!"omnipotent char", !6, i64 0}
!6 = !{!"Simple C/C++ TBAA"}
!7 = !{!8, !8, i64 0}
!8 = !{!"p1 _ZTS10Min_Man_t_", !9, i64 0}
!9 = !{!"any pointer", !5, i64 0}
!10 = !{!11, !4, i64 0}
!11 = !{!"Min_Man_t_", !4, i64 0, !4, i64 4, !12, i64 8, !13, i64 16, !13, i64 24, !5, i64 32, !5, i64 48, !13, i64 64, !13, i64 72, !4, i64 80, !14, i64 88}
!12 = !{!"p1 _ZTS16Extra_MmFixed_t_", !9, i64 0}
!13 = !{!"p1 _ZTS11Min_Cube_t_", !9, i64 0}
!14 = !{!"p2 _ZTS11Min_Cube_t_", !9, i64 0}
!15 = !{!11, !4, i64 4}
!16 = !{!11, !12, i64 8}
!17 = !{!11, !14, i64 88}
!18 = !{!11, !13, i64 16}
!19 = !{!11, !13, i64 24}
!20 = !{!11, !13, i64 64}
!21 = !{!11, !13, i64 72}
!22 = !{!13, !13, i64 0}
!23 = !{!11, !4, i64 80}
!24 = !{!25, !13, i64 0}
!25 = !{!"Min_Cube_t_", !13, i64 0, !4, i64 8, !4, i64 9, !4, i64 10, !5, i64 12}
